Archive member included because of file (symbol)

/usr/lib/gcc/avr/4.5.3/avrxmega7/libgcc.a(_mulsi3.o)
                              main.o (__mulsi3)
/usr/lib/gcc/avr/4.5.3/avrxmega7/libgcc.a(_udivmodqi4.o)
                              main.o (__udivmodqi4)
/usr/lib/gcc/avr/4.5.3/avrxmega7/libgcc.a(_udivmodhi4.o)
                              main.o (__udivmodhi4)
/usr/lib/gcc/avr/4.5.3/avrxmega7/libgcc.a(_divmodhi4.o)
                              main.o (__divmodhi4)
/usr/lib/gcc/avr/4.5.3/avrxmega7/libgcc.a(_udivmodsi4.o)
                              main.o (__udivmodsi4)
/usr/lib/gcc/avr/4.5.3/avrxmega7/libgcc.a(_divmodsi4.o)
                              main.o (__divmodsi4)
/usr/lib/gcc/avr/4.5.3/avrxmega7/libgcc.a(_prologue.o)
                              main.o (__prologue_saves__)
/usr/lib/gcc/avr/4.5.3/avrxmega7/libgcc.a(_epilogue.o)
                              main.o (__epilogue_restores__)
/usr/lib/gcc/avr/4.5.3/avrxmega7/libgcc.a(_exit.o)
                              /usr/lib/gcc/avr/4.5.3/../../../avr/lib/avrxmega7/crtx128a1.o (exit)
/usr/lib/gcc/avr/4.5.3/avrxmega7/libgcc.a(_tablejump.o)
                              main.o (__tablejump2__)
/usr/lib/gcc/avr/4.5.3/avrxmega7/libgcc.a(_copy_data.o)
                              main.o (__do_copy_data)
/usr/lib/gcc/avr/4.5.3/avrxmega7/libgcc.a(_clear_bss.o)
                              main.o (__do_clear_bss)
/usr/lib/gcc/avr/4.5.3/../../../avr/lib/avrxmega7/libc.a(malloc.o)
                              uart.o (malloc)
/usr/lib/gcc/avr/4.5.3/../../../avr/lib/avrxmega7/libc.a(strtoul.o)
                              utils.o (strtoul)
/usr/lib/gcc/avr/4.5.3/../../../avr/lib/avrxmega7/libc.a(isspace.o)
                              /usr/lib/gcc/avr/4.5.3/../../../avr/lib/avrxmega7/libc.a(strtoul.o) (isspace)
/usr/lib/gcc/avr/4.5.3/../../../avr/lib/avrxmega7/libc.a(sprintf.o)
                              main.o (sprintf)
/usr/lib/gcc/avr/4.5.3/../../../avr/lib/avrxmega7/libc.a(vfprintf_std.o)
                              /usr/lib/gcc/avr/4.5.3/../../../avr/lib/avrxmega7/libc.a(sprintf.o) (vfprintf)
/usr/lib/gcc/avr/4.5.3/../../../avr/lib/avrxmega7/libc.a(eerd_byte_atxmega128a1.o)
                              main.o (__eerd_byte_x128a1)
/usr/lib/gcc/avr/4.5.3/../../../avr/lib/avrxmega7/libc.a(eewr_byte_atxmega128a1.o)
                              main.o (__eewr_byte_x128a1)
/usr/lib/gcc/avr/4.5.3/../../../avr/lib/avrxmega7/libc.a(errno.o)
                              /usr/lib/gcc/avr/4.5.3/../../../avr/lib/avrxmega7/libc.a(strtoul.o) (errno)
/usr/lib/gcc/avr/4.5.3/../../../avr/lib/avrxmega7/libc.a(cty_isfalse.o)
                              /usr/lib/gcc/avr/4.5.3/../../../avr/lib/avrxmega7/libc.a(isspace.o) (__ctype_isfalse)
/usr/lib/gcc/avr/4.5.3/../../../avr/lib/avrxmega7/libc.a(strnlen_P.o)
                              /usr/lib/gcc/avr/4.5.3/../../../avr/lib/avrxmega7/libc.a(vfprintf_std.o) (strnlen_P)
/usr/lib/gcc/avr/4.5.3/../../../avr/lib/avrxmega7/libc.a(strnlen.o)
                              /usr/lib/gcc/avr/4.5.3/../../../avr/lib/avrxmega7/libc.a(vfprintf_std.o) (strnlen)
/usr/lib/gcc/avr/4.5.3/../../../avr/lib/avrxmega7/libc.a(fputc.o)
                              /usr/lib/gcc/avr/4.5.3/../../../avr/lib/avrxmega7/libc.a(vfprintf_std.o) (fputc)
/usr/lib/gcc/avr/4.5.3/../../../avr/lib/avrxmega7/libc.a(ultoa_invert.o)
                              /usr/lib/gcc/avr/4.5.3/../../../avr/lib/avrxmega7/libc.a(vfprintf_std.o) (__ultoa_invert)

Allocating common symbols
Common symbol       size              file

g_laserpattern      0x7d              main.o
g_ch_from_panel     0x81              main.o
twi4                0xf               utils.o
g_count_max         0x18              handler.o
g_adr_from_panel    0x81              main.o
errno               0x2               /usr/lib/gcc/avr/4.5.3/../../../avr/lib/avrxmega7/libc.a(errno.o)
g_p_handler_func    0xc               handler.o
twi1                0xf               utils.o
g_bytes_per_panel   0x1               main.o
__brkval            0x2               /usr/lib/gcc/avr/4.5.3/../../../avr/lib/avrxmega7/libc.a(malloc.o)
twi3                0xf               utils.o
g_buf_func_x        0xc8              main.o
g_file_arenaconfig  0x1a              main.o
g_buf_func_y        0xc8              main.o
g_file_func_x       0x1a              main.o
g_file_flash        0x1a              utils.o
g_enabled           0x6               handler.o
g_file_eeprom       0x1a              utils.o
g_count             0x18              handler.o
g_file_func_y       0x1a              main.o
__flp               0x2               /usr/lib/gcc/avr/4.5.3/../../../avr/lib/avrxmega7/libc.a(malloc.o)
twi2                0xf               utils.o
g_file_pattern      0x1a              main.o

Memory Configuration

Name             Origin             Length             Attributes
text             0x0000000000000000 0x0000000000100000 xr
data             0x0000000000802000 0x000000000000ffa0 rw !x
eeprom           0x0000000000810000 0x0000000000010000 rw !x
fuse             0x0000000000820000 0x0000000000000400 rw !x
lock             0x0000000000830000 0x0000000000000400 rw !x
signature        0x0000000000840000 0x0000000000000400 rw !x
*default*        0x0000000000000000 0xffffffffffffffff

Linker script and memory map

LOAD /usr/lib/gcc/avr/4.5.3/../../../avr/lib/avrxmega7/crtx128a1.o
LOAD main.o
LOAD utils.o
LOAD uart.o
LOAD handler.o
LOAD twi.o
LOAD ff.o
LOAD mmc.o
LOAD rtc.o
LOAD timer.o
LOAD eeprom_driver.o
LOAD xitoa.o
LOAD /usr/lib/gcc/avr/4.5.3/avrxmega7/libgcc.a
LOAD /usr/lib/gcc/avr/4.5.3/../../../avr/lib/avrxmega7/libc.a
LOAD /usr/lib/gcc/avr/4.5.3/avrxmega7/libgcc.a

.hash
 *(.hash)

.dynsym
 *(.dynsym)

.dynstr
 *(.dynstr)

.gnu.version
 *(.gnu.version)

.gnu.version_d
 *(.gnu.version_d)

.gnu.version_r
 *(.gnu.version_r)

.rel.init
 *(.rel.init)

.rela.init
 *(.rela.init)

.rel.text
 *(.rel.text)
 *(.rel.text.*)
 *(.rel.gnu.linkonce.t*)

.rela.text
 *(.rela.text)
 *(.rela.text.*)
 *(.rela.gnu.linkonce.t*)

.rel.fini
 *(.rel.fini)

.rela.fini
 *(.rela.fini)

.rel.rodata
 *(.rel.rodata)
 *(.rel.rodata.*)
 *(.rel.gnu.linkonce.r*)

.rela.rodata
 *(.rela.rodata)
 *(.rela.rodata.*)
 *(.rela.gnu.linkonce.r*)

.rel.data
 *(.rel.data)
 *(.rel.data.*)
 *(.rel.gnu.linkonce.d*)

.rela.data
 *(.rela.data)
 *(.rela.data.*)
 *(.rela.gnu.linkonce.d*)

.rel.ctors
 *(.rel.ctors)

.rela.ctors
 *(.rela.ctors)

.rel.dtors
 *(.rel.dtors)

.rela.dtors
 *(.rela.dtors)

.rel.got
 *(.rel.got)

.rela.got
 *(.rela.got)

.rel.bss
 *(.rel.bss)

.rela.bss
 *(.rela.bss)

.rel.plt
 *(.rel.plt)

.rela.plt
 *(.rela.plt)

.text           0x0000000000000000     0xa28c
 *(.vectors)
 .vectors       0x0000000000000000      0x1f4 /usr/lib/gcc/avr/4.5.3/../../../avr/lib/avrxmega7/crtx128a1.o
                0x0000000000000000                __vectors
                0x0000000000000000                __vector_default
 *(.vectors)
 *(.progmem.gcc*)
 .progmem.gcc_sw_table
                0x00000000000001f4       0x20 main.o
 .progmem.gcc_sw_table
                0x0000000000000214       0x1e mmc.o
 *(.progmem*)
 .progmem.data  0x0000000000000232      0xbc7 main.o
 .progmem.data  0x0000000000000df9      0x5cd utils.o
                0x00000000000013c6                . = ALIGN (0x2)
                0x00000000000013c6                __trampolines_start = .
 *(.trampolines)
 .trampolines   0x00000000000013c6        0x0 linker stubs
 *(.trampolines*)
                0x00000000000013c6                __trampolines_end = .
 *(.jumptables)
 *(.jumptables*)
 *(.lowtext)
 *(.lowtext*)
                0x00000000000013c6                __ctors_start = .
 *(.ctors)
                0x00000000000013c6                __ctors_end = .
                0x00000000000013c6                __dtors_start = .
 *(.dtors)
                0x00000000000013c6                __dtors_end = .
 SORT(*)(.ctors)
 SORT(*)(.dtors)
 *(.init0)
 .init0         0x00000000000013c6        0x0 /usr/lib/gcc/avr/4.5.3/../../../avr/lib/avrxmega7/crtx128a1.o
                0x00000000000013c6                __init
 *(.init0)
 *(.init1)
 *(.init1)
 *(.init2)
 .init2         0x00000000000013c6       0x18 /usr/lib/gcc/avr/4.5.3/../../../avr/lib/avrxmega7/crtx128a1.o
 *(.init2)
 *(.init3)
 *(.init3)
 *(.init4)
 .init4         0x00000000000013de       0x1a /usr/lib/gcc/avr/4.5.3/avrxmega7/libgcc.a(_copy_data.o)
                0x00000000000013de                __do_copy_data
 .init4         0x00000000000013f8       0x10 /usr/lib/gcc/avr/4.5.3/avrxmega7/libgcc.a(_clear_bss.o)
                0x00000000000013f8                __do_clear_bss
 *(.init4)
 *(.init5)
 *(.init5)
 *(.init6)
 *(.init6)
 *(.init7)
 *(.init7)
 *(.init8)
 *(.init8)
 *(.init9)
 .init9         0x0000000000001408        0x8 /usr/lib/gcc/avr/4.5.3/../../../avr/lib/avrxmega7/crtx128a1.o
 *(.init9)
 *(.text)
 .text          0x0000000000001410        0x4 /usr/lib/gcc/avr/4.5.3/../../../avr/lib/avrxmega7/crtx128a1.o
                0x0000000000001410                __vector_38
                0x0000000000001410                __vector_104
                0x0000000000001410                __vector_22
                0x0000000000001410                __vector_63
                0x0000000000001410                __vector_28
                0x0000000000001410                __vector_67
                0x0000000000001410                __vector_1
                0x0000000000001410                __vector_119
                0x0000000000001410                __vector_32
                0x0000000000001410                __vector_75
                0x0000000000001410                __vector_71
                0x0000000000001410                __vector_91
                0x0000000000001410                __vector_34
                0x0000000000001410                __vector_62
                0x0000000000001410                __vector_77
                0x0000000000001410                __vector_102
                0x0000000000001410                __vector_24
                0x0000000000001410                __vector_12
                0x0000000000001410                __vector_55
                0x0000000000001410                __vector_69
                0x0000000000001410                __vector_81
                0x0000000000001410                __vector_90
                0x0000000000001410                __bad_interrupt
                0x0000000000001410                __vector_122
                0x0000000000001410                __vector_72
                0x0000000000001410                __vector_114
                0x0000000000001410                __vector_6
                0x0000000000001410                __vector_110
                0x0000000000001410                __vector_31
                0x0000000000001410                __vector_92
                0x0000000000001410                __vector_35
                0x0000000000001410                __vector_78
                0x0000000000001410                __vector_74
                0x0000000000001410                __vector_117
                0x0000000000001410                __vector_39
                0x0000000000001410                __vector_3
                0x0000000000001410                __vector_105
                0x0000000000001410                __vector_98
                0x0000000000001410                __vector_23
                0x0000000000001410                __vector_68
                0x0000000000001410                __vector_30
                0x0000000000001410                __vector_73
                0x0000000000001410                __vector_45
                0x0000000000001410                __vector_93
                0x0000000000001410                __vector_61
                0x0000000000001410                __vector_11
                0x0000000000001410                __vector_54
                0x0000000000001410                __vector_99
                0x0000000000001410                __vector_17
                0x0000000000001410                __vector_19
                0x0000000000001410                __vector_56
                0x0000000000001410                __vector_7
                0x0000000000001410                __vector_49
                0x0000000000001410                __vector_123
                0x0000000000001410                __vector_41
                0x0000000000001410                __vector_86
                0x0000000000001410                __vector_101
                0x0000000000001410                __vector_64
                0x0000000000001410                __vector_88
                0x0000000000001410                __vector_109
                0x0000000000001410                __vector_43
                0x0000000000001410                __vector_27
                0x0000000000001410                __vector_5
                0x0000000000001410                __vector_113
                0x0000000000001410                __vector_33
                0x0000000000001410                __vector_115
                0x0000000000001410                __vector_52
                0x0000000000001410                __vector_37
                0x0000000000001410                __vector_95
                0x0000000000001410                __vector_103
                0x0000000000001410                __vector_96
                0x0000000000001410                __vector_89
                0x0000000000001410                __vector_4
                0x0000000000001410                __vector_44
                0x0000000000001410                __vector_82
                0x0000000000001410                __vector_106
                0x0000000000001410                __vector_118
                0x0000000000001410                __vector_51
                0x0000000000001410                __vector_9
                0x0000000000001410                __vector_2
                0x0000000000001410                __vector_21
                0x0000000000001410                __vector_15
                0x0000000000001410                __vector_66
                0x0000000000001410                __vector_36
                0x0000000000001410                __vector_79
                0x0000000000001410                __vector_58
                0x0000000000001410                __vector_70
                0x0000000000001410                __vector_83
                0x0000000000001410                __vector_29
                0x0000000000001410                __vector_60
                0x0000000000001410                __vector_121
                0x0000000000001410                __vector_40
                0x0000000000001410                __vector_85
                0x0000000000001410                __vector_94
                0x0000000000001410                __vector_8
                0x0000000000001410                __vector_48
                0x0000000000001410                __vector_124
                0x0000000000001410                __vector_116
                0x0000000000001410                __vector_112
                0x0000000000001410                __vector_111
                0x0000000000001410                __vector_80
                0x0000000000001410                __vector_14
                0x0000000000001410                __vector_84
                0x0000000000001410                __vector_57
                0x0000000000001410                __vector_10
                0x0000000000001410                __vector_50
                0x0000000000001410                __vector_16
                0x0000000000001410                __vector_59
                0x0000000000001410                __vector_18
                0x0000000000001410                __vector_97
                0x0000000000001410                __vector_20
                0x0000000000001410                __vector_42
                0x0000000000001410                __vector_87
                0x0000000000001410                __vector_65
                0x0000000000001410                __vector_120
 .text          0x0000000000001414     0x4030 main.o
                0x0000000000001414                increment_index_x
                0x0000000000001482                increment_index_y
                0x00000000000014f6                decrement_index_x
                0x0000000000001564                decrement_index_y
                0x00000000000015d2                toggle_trigger
                0x00000000000015da                calculate_and_set_position_y
                0x000000000000195a                calculate_and_set_position_x
                0x0000000000001d28                __vector_13
                0x0000000000001d92                __vector_76
                0x0000000000001dfc                __vector_46
                0x0000000000001e66                __vector_107
                0x0000000000001ed0                __vector_100
                0x0000000000001fc0                start_running
                0x0000000000002050                stop_running
                0x00000000000020be                handle_message_length_7
                0x000000000000216e                handle_message_length_62
                0x0000000000002186                handle_message_length_63
                0x00000000000021ae                set_isr_rates
                0x0000000000002286                calculate_and_set_velocity
                0x0000000000002b34                set_hwConfig
                0x0000000000002c36                i2cMasterSend
                0x0000000000002cde                fetch_and_display_frame
                0x0000000000003266                benchmark_pattern
                0x0000000000003320                set_pattern
                0x0000000000003524                display_preload_frame
                0x00000000000035cc                display_dumped_frame
                0x0000000000003668                handle_message_length_9
                0x000000000000371a                handle_message_length_5
                0x00000000000038d6                handle_message_length_4
                0x000000000000391a                handle_message_length_2
                0x00000000000039b0                set_default_func
                0x0000000000003a9a                fetch_block_func_x
                0x0000000000003c32                fetch_block_func_y
                0x0000000000003dca                set_vel_func
                0x00000000000041b4                set_pos_func
                0x0000000000004546                handle_message_length_3
                0x00000000000047f8                dump_mat
                0x00000000000049fa                handle_message_length_1
                0x0000000000004f66                main
 .text          0x0000000000005444     0x193c utils.o
                0x0000000000005682                writeCommandToADC
                0x00000000000056b0                set_voltage_range_channel
                0x0000000000005750                readConversionFromADC
                0x00000000000057a8                CCPWrite
                0x00000000000057d2                ledShow4Bits
                0x0000000000005812                ledWrite
                0x0000000000005856                ledToggle
                0x000000000000587a                ledBlink
                0x00000000000058a4                digitalMode
                0x0000000000005908                init_all
                0x0000000000005abc                digitalRead
                0x0000000000005adc                digitalWrite
                0x0000000000005b18                digitalToggle
                0x0000000000005b34                analogRead
                0x0000000000005b6c                analogWrite
                0x0000000000005bb8                test_DIO
                0x0000000000005c28                SystemReset
                0x0000000000005c34                test_ADC
                0x0000000000005ca6                progPage
                0x0000000000005d3a                readPage
                0x0000000000005e14                verifyPage
                0x0000000000005ef8                progEEPage
                0x0000000000005f88                readEEPage
                0x000000000000605e                verifyEEPage
                0x000000000000613e                flash_panel
                0x0000000000006772                eeprom_panel
 .text          0x0000000000006d80      0x350 uart.o
                0x0000000000006d80                createRxBuff
                0x0000000000006db8                releaseRxBuff
                0x0000000000006dc6                uart_init
                0x0000000000006e04                uart_test
                0x0000000000006e10                uart_get
                0x0000000000006e6a                uart_put
                0x0000000000006ea6                uart_putstr
                0x0000000000006ec2                uart_crlf
                0x0000000000006ed0                fill_Rx_buffer
                0x0000000000006f86                send_Tx_buffer
                0x0000000000006fc2                __vector_25
                0x000000000000705c                __vector_26
 .text          0x00000000000070d0      0x1e0 handler.o
                0x00000000000070d0                Handler_Init
                0x00000000000070fe                __vector_47
                0x000000000000720e                Reg_Handler
                0x0000000000007252                Update_Reg_Handler
 .text          0x00000000000072b0      0x268 twi.o
                0x00000000000072b0                TWI_MasterCreateBuff
                0x00000000000072fe                TWI_MasterReleaseBuff
                0x000000000000731a                TWI_MasterInit
                0x000000000000733e                TWI_MasterState
                0x0000000000007352                TWI_MasterReady
                0x000000000000735e                TWI_MasterWriteRead
                0x00000000000073d6                TWI_MasterRead
                0x00000000000073e8                TWI_MasterWrite
                0x00000000000073f4                TWI_MasterArbitrationLostBusErrorHandler
                0x0000000000007418                TWI_MasterWriteHandler
                0x0000000000007482                TWI_MasterReadHandler
                0x00000000000074da                TWI_MasterInterruptHandler
 .text          0x0000000000007518     0x1462 ff.o
                0x0000000000007734                clust2sect
                0x0000000000007792                get_fat
                0x0000000000007a68                f_mount
                0x0000000000007a9a                f_open
                0x00000000000083d6                f_read
                0x0000000000008656                f_close
                0x0000000000008672                f_lseek
                0x00000000000088fe                f_gets
 .text          0x000000000000897a      0x75c mmc.o
                0x0000000000008b1c                disk_initialize
                0x0000000000008c90                disk_status
                0x0000000000008c9e                disk_read
                0x0000000000008d4a                disk_ioctl
                0x000000000000902e                disk_timerproc
                0x0000000000009070                __vector_53
 .text          0x00000000000090d6       0x3a rtc.o
                0x00000000000090d6                rtc_gettime
                0x00000000000090fa                rtc_settime
                0x0000000000009100                rtc_init
                0x0000000000009106                get_fattime
 .text          0x0000000000009110      0x12c timer.o
                0x0000000000009110                __vector_108
                0x000000000000916e                timer_init
                0x0000000000009194                Wait
                0x00000000000091de                timer_fine_tic
                0x00000000000091ec                timer_fine_toc
                0x00000000000091fc                timer_coarse_tic
                0x0000000000009226                timer_coarse_toc
 .text          0x000000000000923c      0x206 eeprom_driver.o
                0x000000000000924e                EEPROM_WaitForNVM
                0x0000000000009258                EEPROM_ReadByte
                0x00000000000092aa                EEPROM_FlushBuffer
                0x00000000000092c4                EEPROM_WriteByte
                0x000000000000931a                EEPROM_LoadByte
                0x000000000000934a                EEPROM_LoadPage
                0x0000000000009376                EEPROM_AtomicWritePage
                0x00000000000093b4                EEPROM_ErasePage
                0x00000000000093f2                EEPROM_SplitWritePage
                0x0000000000009430                EEPROM_EraseAll
 .text          0x0000000000009442      0x214 xitoa.o
                0x0000000000009442                xputc
                0x0000000000009460                xputs
                0x000000000000946e                xitoa
                0x00000000000094e4                xprintf
                0x00000000000095a0                xatoi
 .text          0x0000000000009656        0x0 /usr/lib/gcc/avr/4.5.3/avrxmega7/libgcc.a(_mulsi3.o)
 .text          0x0000000000009656        0x0 /usr/lib/gcc/avr/4.5.3/avrxmega7/libgcc.a(_udivmodqi4.o)
 .text          0x0000000000009656        0x0 /usr/lib/gcc/avr/4.5.3/avrxmega7/libgcc.a(_udivmodhi4.o)
 .text          0x0000000000009656        0x0 /usr/lib/gcc/avr/4.5.3/avrxmega7/libgcc.a(_divmodhi4.o)
 .text          0x0000000000009656        0x0 /usr/lib/gcc/avr/4.5.3/avrxmega7/libgcc.a(_udivmodsi4.o)
 .text          0x0000000000009656        0x0 /usr/lib/gcc/avr/4.5.3/avrxmega7/libgcc.a(_divmodsi4.o)
 .text          0x0000000000009656        0x0 /usr/lib/gcc/avr/4.5.3/avrxmega7/libgcc.a(_prologue.o)
 .text          0x0000000000009656        0x0 /usr/lib/gcc/avr/4.5.3/avrxmega7/libgcc.a(_epilogue.o)
 .text          0x0000000000009656        0x0 /usr/lib/gcc/avr/4.5.3/avrxmega7/libgcc.a(_exit.o)
 .text          0x0000000000009656        0x0 /usr/lib/gcc/avr/4.5.3/avrxmega7/libgcc.a(_tablejump.o)
 .text          0x0000000000009656        0x0 /usr/lib/gcc/avr/4.5.3/avrxmega7/libgcc.a(_copy_data.o)
 .text          0x0000000000009656        0x0 /usr/lib/gcc/avr/4.5.3/avrxmega7/libgcc.a(_clear_bss.o)
 .text          0x0000000000009656        0x0 /usr/lib/gcc/avr/4.5.3/../../../avr/lib/avrxmega7/libc.a(malloc.o)
 .text          0x0000000000009656        0x0 /usr/lib/gcc/avr/4.5.3/../../../avr/lib/avrxmega7/libc.a(strtoul.o)
 .text          0x0000000000009656        0x0 /usr/lib/gcc/avr/4.5.3/../../../avr/lib/avrxmega7/libc.a(isspace.o)
 .text          0x0000000000009656        0x0 /usr/lib/gcc/avr/4.5.3/../../../avr/lib/avrxmega7/libc.a(sprintf.o)
 .text          0x0000000000009656        0x0 /usr/lib/gcc/avr/4.5.3/../../../avr/lib/avrxmega7/libc.a(vfprintf_std.o)
 .text          0x0000000000009656        0x0 /usr/lib/gcc/avr/4.5.3/../../../avr/lib/avrxmega7/libc.a(eerd_byte_atxmega128a1.o)
 .text          0x0000000000009656        0x0 /usr/lib/gcc/avr/4.5.3/../../../avr/lib/avrxmega7/libc.a(eewr_byte_atxmega128a1.o)
 .text          0x0000000000009656        0x0 /usr/lib/gcc/avr/4.5.3/../../../avr/lib/avrxmega7/libc.a(errno.o)
 .text          0x0000000000009656        0x0 /usr/lib/gcc/avr/4.5.3/../../../avr/lib/avrxmega7/libc.a(cty_isfalse.o)
 .text          0x0000000000009656        0x0 /usr/lib/gcc/avr/4.5.3/../../../avr/lib/avrxmega7/libc.a(strnlen_P.o)
 .text          0x0000000000009656        0x0 /usr/lib/gcc/avr/4.5.3/../../../avr/lib/avrxmega7/libc.a(strnlen.o)
 .text          0x0000000000009656        0x0 /usr/lib/gcc/avr/4.5.3/../../../avr/lib/avrxmega7/libc.a(fputc.o)
 .text          0x0000000000009656        0x0 /usr/lib/gcc/avr/4.5.3/../../../avr/lib/avrxmega7/libc.a(ultoa_invert.o)
                0x0000000000009656                . = ALIGN (0x2)
 *(.text.*)
 .text.libgcc   0x0000000000009656       0x3e /usr/lib/gcc/avr/4.5.3/avrxmega7/libgcc.a(_mulsi3.o)
                0x0000000000009656                __mulsi3
 .text.libgcc   0x0000000000009694       0x18 /usr/lib/gcc/avr/4.5.3/avrxmega7/libgcc.a(_udivmodqi4.o)
                0x0000000000009694                __udivmodqi4
 .text.libgcc   0x00000000000096ac       0x28 /usr/lib/gcc/avr/4.5.3/avrxmega7/libgcc.a(_udivmodhi4.o)
                0x00000000000096ac                __udivmodhi4
 .text.libgcc   0x00000000000096d4       0x26 /usr/lib/gcc/avr/4.5.3/avrxmega7/libgcc.a(_divmodhi4.o)
                0x00000000000096d4                __divmodhi4
                0x00000000000096d4                _div
 .text.libgcc   0x00000000000096fa       0x44 /usr/lib/gcc/avr/4.5.3/avrxmega7/libgcc.a(_udivmodsi4.o)
                0x00000000000096fa                __udivmodsi4
 .text.libgcc   0x000000000000973e       0x36 /usr/lib/gcc/avr/4.5.3/avrxmega7/libgcc.a(_divmodsi4.o)
                0x000000000000973e                __divmodsi4
 .text.libgcc   0x0000000000009774       0x32 /usr/lib/gcc/avr/4.5.3/avrxmega7/libgcc.a(_prologue.o)
                0x0000000000009774                __prologue_saves__
 .text.libgcc   0x00000000000097a6       0x30 /usr/lib/gcc/avr/4.5.3/avrxmega7/libgcc.a(_epilogue.o)
                0x00000000000097a6                __epilogue_restores__
 .text.libgcc   0x00000000000097d6        0x0 /usr/lib/gcc/avr/4.5.3/avrxmega7/libgcc.a(_exit.o)
 .text.libgcc   0x00000000000097d6        0xc /usr/lib/gcc/avr/4.5.3/avrxmega7/libgcc.a(_tablejump.o)
                0x00000000000097d6                __tablejump2__
                0x00000000000097da                __tablejump__
 .text.libgcc   0x00000000000097e2        0x0 /usr/lib/gcc/avr/4.5.3/avrxmega7/libgcc.a(_copy_data.o)
 .text.libgcc   0x00000000000097e2        0x0 /usr/lib/gcc/avr/4.5.3/avrxmega7/libgcc.a(_clear_bss.o)
 .text.avr-libc
                0x00000000000097e2      0x266 /usr/lib/gcc/avr/4.5.3/../../../avr/lib/avrxmega7/libc.a(malloc.o)
                0x00000000000097e2                malloc
                0x0000000000009916                free
 .text.avr-libc
                0x0000000000009a48      0x21c /usr/lib/gcc/avr/4.5.3/../../../avr/lib/avrxmega7/libc.a(strtoul.o)
                0x0000000000009a48                strtoul
 .text.avr-libc
                0x0000000000009c64       0x10 /usr/lib/gcc/avr/4.5.3/../../../avr/lib/avrxmega7/libc.a(isspace.o)
                0x0000000000009c64                isspace
 .text.avr-libc
                0x0000000000009c74       0x54 /usr/lib/gcc/avr/4.5.3/../../../avr/lib/avrxmega7/libc.a(sprintf.o)
                0x0000000000009c74                sprintf
 .text.avr-libc
                0x0000000000009cc8      0x414 /usr/lib/gcc/avr/4.5.3/../../../avr/lib/avrxmega7/libc.a(vfprintf_std.o)
                0x0000000000009cc8                vfprintf
 .text.avr-libc
                0x000000000000a0dc       0x20 /usr/lib/gcc/avr/4.5.3/../../../avr/lib/avrxmega7/libc.a(eerd_byte_atxmega128a1.o)
                0x000000000000a0dc                __eerd_byte_x128a1
                0x000000000000a0e4                eeprom_mapen
 .text.avr-libc
                0x000000000000a0fc       0x46 /usr/lib/gcc/avr/4.5.3/../../../avr/lib/avrxmega7/libc.a(eewr_byte_atxmega128a1.o)
                0x000000000000a0fc                __eewr_byte_x128a1
                0x000000000000a0fe                __eewr_r18_x128a1
 .text.avr-libc
                0x000000000000a142        0x6 /usr/lib/gcc/avr/4.5.3/../../../avr/lib/avrxmega7/libc.a(cty_isfalse.o)
                0x000000000000a142                __ctype_isfalse
                0x000000000000a146                __ctype_istrue
 .text.avr-libc
                0x000000000000a148       0x16 /usr/lib/gcc/avr/4.5.3/../../../avr/lib/avrxmega7/libc.a(strnlen_P.o)
                0x000000000000a148                strnlen_P
 .text.avr-libc
                0x000000000000a15e       0x16 /usr/lib/gcc/avr/4.5.3/../../../avr/lib/avrxmega7/libc.a(strnlen.o)
                0x000000000000a15e                strnlen
 .text.avr-libc
                0x000000000000a174       0x58 /usr/lib/gcc/avr/4.5.3/../../../avr/lib/avrxmega7/libc.a(fputc.o)
                0x000000000000a174                fputc
 .text.avr-libc
                0x000000000000a1cc       0xbc /usr/lib/gcc/avr/4.5.3/../../../avr/lib/avrxmega7/libc.a(ultoa_invert.o)
                0x000000000000a1cc                __ultoa_invert
                0x000000000000a288                . = ALIGN (0x2)
 *(.fini9)
 .fini9         0x000000000000a288        0x0 /usr/lib/gcc/avr/4.5.3/avrxmega7/libgcc.a(_exit.o)
                0x000000000000a288                exit
                0x000000000000a288                _exit
 *(.fini9)
 *(.fini8)
 *(.fini8)
 *(.fini7)
 *(.fini7)
 *(.fini6)
 *(.fini6)
 *(.fini5)
 *(.fini5)
 *(.fini4)
 *(.fini4)
 *(.fini3)
 *(.fini3)
 *(.fini2)
 *(.fini2)
 *(.fini1)
 *(.fini1)
 *(.fini0)
 .fini0         0x000000000000a288        0x4 /usr/lib/gcc/avr/4.5.3/avrxmega7/libgcc.a(_exit.o)
 *(.fini0)
                0x000000000000a28c                _etext = .

.data           0x0000000000802000      0x3b0 load address 0x000000000000a28c
                0x0000000000802000                PROVIDE (__data_start, .)
 *(.data)
 .data          0x0000000000802000        0x0 /usr/lib/gcc/avr/4.5.3/../../../avr/lib/avrxmega7/crtx128a1.o
 .data          0x0000000000802000      0x374 main.o
                0x0000000000802034                g_b_quiet_mode
                0x0000000000802035                g_x_adc_max
                0x0000000000802037                g_y_adc_max
                0x0000000000802039                g_n_x
                0x000000000080203b                g_n_y
                0x000000000080203d                g_nbytes_func_x
                0x0000000000802041                g_nbytes_func_y
                0x0000000000802045                g_iblock_func_x
                0x0000000000802046                g_iblock_func_y
                0x0000000000802047                g_nblocks_func_x
                0x0000000000802049                g_nblocks_func_y
                0x000000000080204b                g_b_default_func_x
                0x000000000080204c                g_b_default_func_y
                0x000000000080204d                g_period_func_x
                0x000000000080204f                g_period_func_y
                0x0000000000802051                g_trigger_rate
 .data          0x0000000000802374       0x26 utils.o
 .data          0x000000000080239a        0x0 uart.o
 .data          0x000000000080239a        0x0 handler.o
 .data          0x000000000080239a        0x0 twi.o
 .data          0x000000000080239a        0xf ff.o
 .data          0x00000000008023a9        0x1 mmc.o
 .data          0x00000000008023aa        0x0 rtc.o
 .data          0x00000000008023aa        0x0 timer.o
 .data          0x00000000008023aa        0x0 eeprom_driver.o
 .data          0x00000000008023aa        0x0 xitoa.o
 .data          0x00000000008023aa        0x0 /usr/lib/gcc/avr/4.5.3/avrxmega7/libgcc.a(_mulsi3.o)
 .data          0x00000000008023aa        0x0 /usr/lib/gcc/avr/4.5.3/avrxmega7/libgcc.a(_udivmodqi4.o)
 .data          0x00000000008023aa        0x0 /usr/lib/gcc/avr/4.5.3/avrxmega7/libgcc.a(_udivmodhi4.o)
 .data          0x00000000008023aa        0x0 /usr/lib/gcc/avr/4.5.3/avrxmega7/libgcc.a(_divmodhi4.o)
 .data          0x00000000008023aa        0x0 /usr/lib/gcc/avr/4.5.3/avrxmega7/libgcc.a(_udivmodsi4.o)
 .data          0x00000000008023aa        0x0 /usr/lib/gcc/avr/4.5.3/avrxmega7/libgcc.a(_divmodsi4.o)
 .data          0x00000000008023aa        0x0 /usr/lib/gcc/avr/4.5.3/avrxmega7/libgcc.a(_prologue.o)
 .data          0x00000000008023aa        0x0 /usr/lib/gcc/avr/4.5.3/avrxmega7/libgcc.a(_epilogue.o)
 .data          0x00000000008023aa        0x0 /usr/lib/gcc/avr/4.5.3/avrxmega7/libgcc.a(_exit.o)
 .data          0x00000000008023aa        0x0 /usr/lib/gcc/avr/4.5.3/avrxmega7/libgcc.a(_tablejump.o)
 .data          0x00000000008023aa        0x0 /usr/lib/gcc/avr/4.5.3/avrxmega7/libgcc.a(_copy_data.o)
 .data          0x00000000008023aa        0x0 /usr/lib/gcc/avr/4.5.3/avrxmega7/libgcc.a(_clear_bss.o)
 .data          0x00000000008023aa        0x6 /usr/lib/gcc/avr/4.5.3/../../../avr/lib/avrxmega7/libc.a(malloc.o)
                0x00000000008023aa                __malloc_margin
                0x00000000008023ac                __malloc_heap_start
                0x00000000008023ae                __malloc_heap_end
 .data          0x00000000008023b0        0x0 /usr/lib/gcc/avr/4.5.3/../../../avr/lib/avrxmega7/libc.a(strtoul.o)
 .data          0x00000000008023b0        0x0 /usr/lib/gcc/avr/4.5.3/../../../avr/lib/avrxmega7/libc.a(isspace.o)
 .data          0x00000000008023b0        0x0 /usr/lib/gcc/avr/4.5.3/../../../avr/lib/avrxmega7/libc.a(sprintf.o)
 .data          0x00000000008023b0        0x0 /usr/lib/gcc/avr/4.5.3/../../../avr/lib/avrxmega7/libc.a(vfprintf_std.o)
 .data          0x00000000008023b0        0x0 /usr/lib/gcc/avr/4.5.3/../../../avr/lib/avrxmega7/libc.a(eerd_byte_atxmega128a1.o)
 .data          0x00000000008023b0        0x0 /usr/lib/gcc/avr/4.5.3/../../../avr/lib/avrxmega7/libc.a(eewr_byte_atxmega128a1.o)
 .data          0x00000000008023b0        0x0 /usr/lib/gcc/avr/4.5.3/../../../avr/lib/avrxmega7/libc.a(errno.o)
 .data          0x00000000008023b0        0x0 /usr/lib/gcc/avr/4.5.3/../../../avr/lib/avrxmega7/libc.a(cty_isfalse.o)
 .data          0x00000000008023b0        0x0 /usr/lib/gcc/avr/4.5.3/../../../avr/lib/avrxmega7/libc.a(strnlen_P.o)
 .data          0x00000000008023b0        0x0 /usr/lib/gcc/avr/4.5.3/../../../avr/lib/avrxmega7/libc.a(strnlen.o)
 .data          0x00000000008023b0        0x0 /usr/lib/gcc/avr/4.5.3/../../../avr/lib/avrxmega7/libc.a(fputc.o)
 .data          0x00000000008023b0        0x0 /usr/lib/gcc/avr/4.5.3/../../../avr/lib/avrxmega7/libc.a(ultoa_invert.o)
 *(.data*)
 *(.rodata)
 *(.rodata*)
 *(.gnu.linkonce.d*)
                0x00000000008023b0                . = ALIGN (0x2)
                0x00000000008023b0                _edata = .
                0x00000000008023b0                PROVIDE (__data_end, .)

.bss            0x00000000008023b0      0x4fb
                0x00000000008023b0                PROVIDE (__bss_start, .)
 *(.bss)
 .bss           0x00000000008023b0        0x0 /usr/lib/gcc/avr/4.5.3/../../../avr/lib/avrxmega7/crtx128a1.o
 .bss           0x00000000008023b0       0x6d main.o
                0x00000000008023b0                g_b_running
                0x00000000008023b1                g_b_laseractive
                0x00000000008023b2                g_display_count
                0x00000000008023b3                g_row_compress
                0x00000000008023b4                g_ident_compress
                0x00000000008023b5                g_num_panels
                0x00000000008023b6                g_index_frame
                0x00000000008023b8                g_n_frames
                0x00000000008023ba                sync_XY_func
                0x00000000008023bb                usePreloadedPattern
                0x00000000008023bc                g_x
                0x00000000008023be                g_y
                0x00000000008023c0                g_x_initial
                0x00000000008023c2                g_y_initial
                0x00000000008023c4                g_mode_x
                0x00000000008023c5                g_mode_y
                0x00000000008023c6                g_custom_a_x
                0x00000000008023d2                g_custom_a_y
                0x00000000008023de                g_index_func_x_read
                0x00000000008023df                g_index_func_y_read
                0x00000000008023e0                g_index_func_x_write
                0x00000000008023e1                g_index_func_y_write
                0x00000000008023e2                g_filllevel_buf_func_x
                0x00000000008023e3                g_filllevel_buf_func_y
                0x00000000008023e4                g_nbytes_final_block_x
                0x00000000008023e6                g_nbytes_final_block_y
                0x00000000008023e8                g_id_func_x
                0x00000000008023ea                g_id_func_y
                0x00000000008023ec                g_gain_x
                0x00000000008023ee                g_gain_y
                0x00000000008023f0                g_bias_x
                0x00000000008023f2                g_bias_y
                0x00000000008023f4                g_b_xrate_greater_yrate
 .bss           0x000000000080241d        0x4 utils.o
 .bss           0x0000000000802421       0x4d uart.o
 .bss           0x000000000080246e        0x0 handler.o
 .bss           0x000000000080246e        0x0 twi.o
 .bss           0x000000000080246e        0x4 ff.o
 .bss           0x0000000000802472        0x3 mmc.o
 .bss           0x0000000000802475        0x0 rtc.o
 .bss           0x0000000000802475        0x4 timer.o
                0x0000000000802475                ticks
 .bss           0x0000000000802479        0x0 eeprom_driver.o
 .bss           0x0000000000802479        0x2 xitoa.o
                0x0000000000802479                xfunc_out
 .bss           0x000000000080247b        0x0 /usr/lib/gcc/avr/4.5.3/avrxmega7/libgcc.a(_mulsi3.o)
 .bss           0x000000000080247b        0x0 /usr/lib/gcc/avr/4.5.3/avrxmega7/libgcc.a(_udivmodqi4.o)
 .bss           0x000000000080247b        0x0 /usr/lib/gcc/avr/4.5.3/avrxmega7/libgcc.a(_udivmodhi4.o)
 .bss           0x000000000080247b        0x0 /usr/lib/gcc/avr/4.5.3/avrxmega7/libgcc.a(_divmodhi4.o)
 .bss           0x000000000080247b        0x0 /usr/lib/gcc/avr/4.5.3/avrxmega7/libgcc.a(_udivmodsi4.o)
 .bss           0x000000000080247b        0x0 /usr/lib/gcc/avr/4.5.3/avrxmega7/libgcc.a(_divmodsi4.o)
 .bss           0x000000000080247b        0x0 /usr/lib/gcc/avr/4.5.3/avrxmega7/libgcc.a(_prologue.o)
 .bss           0x000000000080247b        0x0 /usr/lib/gcc/avr/4.5.3/avrxmega7/libgcc.a(_epilogue.o)
 .bss           0x000000000080247b        0x0 /usr/lib/gcc/avr/4.5.3/avrxmega7/libgcc.a(_exit.o)
 .bss           0x000000000080247b        0x0 /usr/lib/gcc/avr/4.5.3/avrxmega7/libgcc.a(_tablejump.o)
 .bss           0x000000000080247b        0x0 /usr/lib/gcc/avr/4.5.3/avrxmega7/libgcc.a(_copy_data.o)
 .bss           0x000000000080247b        0x0 /usr/lib/gcc/avr/4.5.3/avrxmega7/libgcc.a(_clear_bss.o)
 .bss           0x000000000080247b        0x0 /usr/lib/gcc/avr/4.5.3/../../../avr/lib/avrxmega7/libc.a(malloc.o)
 .bss           0x000000000080247b        0x0 /usr/lib/gcc/avr/4.5.3/../../../avr/lib/avrxmega7/libc.a(strtoul.o)
 .bss           0x000000000080247b        0x0 /usr/lib/gcc/avr/4.5.3/../../../avr/lib/avrxmega7/libc.a(isspace.o)
 .bss           0x000000000080247b        0x0 /usr/lib/gcc/avr/4.5.3/../../../avr/lib/avrxmega7/libc.a(sprintf.o)
 .bss           0x000000000080247b        0x0 /usr/lib/gcc/avr/4.5.3/../../../avr/lib/avrxmega7/libc.a(vfprintf_std.o)
 .bss           0x000000000080247b        0x0 /usr/lib/gcc/avr/4.5.3/../../../avr/lib/avrxmega7/libc.a(eerd_byte_atxmega128a1.o)
 .bss           0x000000000080247b        0x0 /usr/lib/gcc/avr/4.5.3/../../../avr/lib/avrxmega7/libc.a(eewr_byte_atxmega128a1.o)
 .bss           0x000000000080247b        0x0 /usr/lib/gcc/avr/4.5.3/../../../avr/lib/avrxmega7/libc.a(errno.o)
 .bss           0x000000000080247b        0x0 /usr/lib/gcc/avr/4.5.3/../../../avr/lib/avrxmega7/libc.a(cty_isfalse.o)
 .bss           0x000000000080247b        0x0 /usr/lib/gcc/avr/4.5.3/../../../avr/lib/avrxmega7/libc.a(strnlen_P.o)
 .bss           0x000000000080247b        0x0 /usr/lib/gcc/avr/4.5.3/../../../avr/lib/avrxmega7/libc.a(strnlen.o)
 .bss           0x000000000080247b        0x0 /usr/lib/gcc/avr/4.5.3/../../../avr/lib/avrxmega7/libc.a(fputc.o)
 .bss           0x000000000080247b        0x0 /usr/lib/gcc/avr/4.5.3/../../../avr/lib/avrxmega7/libc.a(ultoa_invert.o)
 *(.bss*)
 *(COMMON)
 COMMON         0x000000000080247b      0x378 main.o
                0x000000000080247b                g_laserpattern
                0x00000000008024f8                g_ch_from_panel
                0x0000000000802579                g_adr_from_panel
                0x00000000008025fa                g_bytes_per_panel
                0x00000000008025fb                g_buf_func_x
                0x00000000008026c3                g_file_arenaconfig
                0x00000000008026dd                g_buf_func_y
                0x00000000008027a5                g_file_func_x
                0x00000000008027bf                g_file_func_y
                0x00000000008027d9                g_file_pattern
 COMMON         0x00000000008027f3       0x70 utils.o
                0x00000000008027f3                twi4
                0x0000000000802802                twi1
                0x0000000000802811                twi3
                0x0000000000802820                g_file_flash
                0x000000000080283a                g_file_eeprom
                0x0000000000802854                twi2
 COMMON         0x0000000000802863       0x42 handler.o
                0x0000000000802863                g_count_max
                0x000000000080287b                g_p_handler_func
                0x0000000000802887                g_enabled
                0x000000000080288d                g_count
 COMMON         0x00000000008028a5        0x4 /usr/lib/gcc/avr/4.5.3/../../../avr/lib/avrxmega7/libc.a(malloc.o)
                0x00000000008028a5                __brkval
                0x00000000008028a7                __flp
 COMMON         0x00000000008028a9        0x2 /usr/lib/gcc/avr/4.5.3/../../../avr/lib/avrxmega7/libc.a(errno.o)
                0x00000000008028a9                errno
                0x00000000008028ab                PROVIDE (__bss_end, .)
                0x000000000000a28c                __data_load_start = LOADADDR (.data)
                0x000000000000a63c                __data_load_end = (__data_load_start + SIZEOF (.data))

.noinit         0x00000000008028ab        0x0
                0x00000000008028ab                PROVIDE (__noinit_start, .)
 *(.noinit*)
                0x00000000008028ab                PROVIDE (__noinit_end, .)
                0x00000000008028ab                _end = .
                0x00000000008028ab                PROVIDE (__heap_start, .)

.eeprom         0x0000000000810000       0x82
 *(.eeprom*)
 .eeprom        0x0000000000810000       0x82 main.o
                0x0000000000810000                work_mode
                0x0000000000810001                arena_config
                0x0000000000810082                __eeprom_end = .

.fuse
 *(.fuse)
 *(.lfuse)
 *(.hfuse)
 *(.efuse)

.lock
 *(.lock*)

.signature
 *(.signature*)

.stab           0x0000000000000000     0x3900
 *(.stab)
 .stab          0x0000000000000000      0x714 /usr/lib/gcc/avr/4.5.3/../../../avr/lib/avrxmega7/crtx128a1.o
 .stab          0x0000000000000714      0xcfc xitoa.o
                                        0xd08 (size before relaxing)
 .stab          0x0000000000001410      0x750 /usr/lib/gcc/avr/4.5.3/../../../avr/lib/avrxmega7/libc.a(malloc.o)
                                        0x75c (size before relaxing)
 .stab          0x0000000000001b60      0x42c /usr/lib/gcc/avr/4.5.3/../../../avr/lib/avrxmega7/libc.a(strtoul.o)
                                        0x48c (size before relaxing)
 .stab          0x0000000000001f8c       0x9c /usr/lib/gcc/avr/4.5.3/../../../avr/lib/avrxmega7/libc.a(isspace.o)
                                         0xa8 (size before relaxing)
 .stab          0x0000000000002028      0x24c /usr/lib/gcc/avr/4.5.3/../../../avr/lib/avrxmega7/libc.a(sprintf.o)
                                        0x3d8 (size before relaxing)
 .stab          0x0000000000002274      0xac8 /usr/lib/gcc/avr/4.5.3/../../../avr/lib/avrxmega7/libc.a(vfprintf_std.o)
                                        0xcd8 (size before relaxing)
 .stab          0x0000000000002d3c       0xfc /usr/lib/gcc/avr/4.5.3/../../../avr/lib/avrxmega7/libc.a(eerd_byte_atxmega128a1.o)
                                        0x108 (size before relaxing)
 .stab          0x0000000000002e38      0x1e0 /usr/lib/gcc/avr/4.5.3/../../../avr/lib/avrxmega7/libc.a(eewr_byte_atxmega128a1.o)
                                        0x1ec (size before relaxing)
 .stab          0x0000000000003018       0xf0 /usr/lib/gcc/avr/4.5.3/../../../avr/lib/avrxmega7/libc.a(errno.o)
                                         0xfc (size before relaxing)
 .stab          0x0000000000003108       0x60 /usr/lib/gcc/avr/4.5.3/../../../avr/lib/avrxmega7/libc.a(cty_isfalse.o)
                                         0x6c (size before relaxing)
 .stab          0x0000000000003168       0x9c /usr/lib/gcc/avr/4.5.3/../../../avr/lib/avrxmega7/libc.a(strnlen_P.o)
                                         0xa8 (size before relaxing)
 .stab          0x0000000000003204       0x9c /usr/lib/gcc/avr/4.5.3/../../../avr/lib/avrxmega7/libc.a(strnlen.o)
                                         0xa8 (size before relaxing)
 .stab          0x00000000000032a0      0x1e0 /usr/lib/gcc/avr/4.5.3/../../../avr/lib/avrxmega7/libc.a(fputc.o)
                                        0x3c0 (size before relaxing)
 .stab          0x0000000000003480      0x480 /usr/lib/gcc/avr/4.5.3/../../../avr/lib/avrxmega7/libc.a(ultoa_invert.o)
                                        0x48c (size before relaxing)

.stabstr        0x0000000000000000      0xfa8
 *(.stabstr)
 .stabstr       0x0000000000000000      0xfa8 /usr/lib/gcc/avr/4.5.3/../../../avr/lib/avrxmega7/crtx128a1.o

.stab.excl
 *(.stab.excl)

.stab.exclstr
 *(.stab.exclstr)

.stab.index
 *(.stab.index)

.stab.indexstr
 *(.stab.indexstr)

.comment
 *(.comment)

.debug
 *(.debug)

.line
 *(.line)

.debug_srcinfo
 *(.debug_srcinfo)

.debug_sfnames
 *(.debug_sfnames)

.debug_aranges  0x0000000000000000      0x140
 *(.debug_aranges)
 .debug_aranges
                0x0000000000000000       0x20 main.o
 .debug_aranges
                0x0000000000000020       0x20 utils.o
 .debug_aranges
                0x0000000000000040       0x20 uart.o
 .debug_aranges
                0x0000000000000060       0x20 handler.o
 .debug_aranges
                0x0000000000000080       0x20 twi.o
 .debug_aranges
                0x00000000000000a0       0x20 ff.o
 .debug_aranges
                0x00000000000000c0       0x20 mmc.o
 .debug_aranges
                0x00000000000000e0       0x20 rtc.o
 .debug_aranges
                0x0000000000000100       0x20 timer.o
 .debug_aranges
                0x0000000000000120       0x20 eeprom_driver.o

.debug_pubnames
                0x0000000000000000      0xf47
 *(.debug_pubnames)
 .debug_pubnames
                0x0000000000000000      0x7e6 main.o
 .debug_pubnames
                0x00000000000007e6      0x1ff utils.o
 .debug_pubnames
                0x00000000000009e5       0xcf uart.o
 .debug_pubnames
                0x0000000000000ab4       0x99 handler.o
 .debug_pubnames
                0x0000000000000b4d      0x140 twi.o
 .debug_pubnames
                0x0000000000000c8d       0x72 ff.o
 .debug_pubnames
                0x0000000000000cff       0x76 mmc.o
 .debug_pubnames
                0x0000000000000d75       0x4f rtc.o
 .debug_pubnames
                0x0000000000000dc4       0x95 timer.o
 .debug_pubnames
                0x0000000000000e59       0xee eeprom_driver.o

.debug_info     0x0000000000000000     0x78f3
 *(.debug_info)
 .debug_info    0x0000000000000000     0x2008 main.o
 .debug_info    0x0000000000002008     0x1be2 utils.o
 .debug_info    0x0000000000003bea      0x4b3 uart.o
 .debug_info    0x000000000000409d      0x817 handler.o
 .debug_info    0x00000000000048b4      0x747 twi.o
 .debug_info    0x0000000000004ffb      0xf64 ff.o
 .debug_info    0x0000000000005f5f      0x6c1 mmc.o
 .debug_info    0x0000000000006620      0x1fd rtc.o
 .debug_info    0x000000000000681d      0xc41 timer.o
 .debug_info    0x000000000000745e      0x495 eeprom_driver.o
 *(.gnu.linkonce.wi.*)

.debug_abbrev   0x0000000000000000     0x1407
 *(.debug_abbrev)
 .debug_abbrev  0x0000000000000000      0x326 main.o
 .debug_abbrev  0x0000000000000326      0x3f2 utils.o
 .debug_abbrev  0x0000000000000718      0x18c uart.o
 .debug_abbrev  0x00000000000008a4      0x13c handler.o
 .debug_abbrev  0x00000000000009e0      0x19d twi.o
 .debug_abbrev  0x0000000000000b7d      0x23b ff.o
 .debug_abbrev  0x0000000000000db8      0x23a mmc.o
 .debug_abbrev  0x0000000000000ff2      0x135 rtc.o
 .debug_abbrev  0x0000000000001127      0x141 timer.o
 .debug_abbrev  0x0000000000001268      0x19f eeprom_driver.o

.debug_line     0x0000000000000000     0x5bbd
 *(.debug_line)
 .debug_line    0x0000000000000000     0x2397 main.o
 .debug_line    0x0000000000002397     0x1474 utils.o
 .debug_line    0x000000000000380b      0x437 uart.o
 .debug_line    0x0000000000003c42      0x1b5 handler.o
 .debug_line    0x0000000000003df7      0x41a twi.o
 .debug_line    0x0000000000004211      0xc70 ff.o
 .debug_line    0x0000000000004e81      0x739 mmc.o
 .debug_line    0x00000000000055ba       0xcd rtc.o
 .debug_line    0x0000000000005687      0x1c6 timer.o
 .debug_line    0x000000000000584d      0x370 eeprom_driver.o

.debug_frame    0x0000000000000000      0x990
 *(.debug_frame)
 .debug_frame   0x0000000000000000      0x280 main.o
 .debug_frame   0x0000000000000280      0x1d0 utils.o
 .debug_frame   0x0000000000000450       0xd0 uart.o
 .debug_frame   0x0000000000000520       0x50 handler.o
 .debug_frame   0x0000000000000570       0xd0 twi.o
 .debug_frame   0x0000000000000640       0xe0 ff.o
 .debug_frame   0x0000000000000720       0xe0 mmc.o
 .debug_frame   0x0000000000000800       0x50 rtc.o
 .debug_frame   0x0000000000000850       0x80 timer.o
 .debug_frame   0x00000000000008d0       0xc0 eeprom_driver.o

.debug_str      0x0000000000000000     0x214d
 *(.debug_str)
 .debug_str     0x0000000000000000      0xec9 main.o
                                        0xf84 (size before relaxing)
 .debug_str     0x0000000000000ec9      0x6d9 utils.o
                                        0xc47 (size before relaxing)
 .debug_str     0x00000000000015a2      0x115 uart.o
                                        0x25f (size before relaxing)
 .debug_str     0x00000000000016b7       0xbf handler.o
                                        0x40b (size before relaxing)
 .debug_str     0x0000000000001776      0x2a1 twi.o
                                        0x5cf (size before relaxing)
 .debug_str     0x0000000000001a17      0x152 ff.o
                                        0x40b (size before relaxing)
 .debug_str     0x0000000000001b69       0xe5 mmc.o
                                        0x330 (size before relaxing)
 .debug_str     0x0000000000001c4e       0x63 rtc.o
                                        0x14c (size before relaxing)
 .debug_str     0x0000000000001cb1       0x71 timer.o
                                        0x446 (size before relaxing)
 .debug_str     0x0000000000001d22      0x42b eeprom_driver.o
                                        0x54b (size before relaxing)

.debug_loc      0x0000000000000000     0x5300
 *(.debug_loc)
 .debug_loc     0x0000000000000000     0x1870 main.o
 .debug_loc     0x0000000000001870     0x14f5 utils.o
 .debug_loc     0x0000000000002d65      0x38b uart.o
 .debug_loc     0x00000000000030f0      0x110 handler.o
 .debug_loc     0x0000000000003200      0x3ed twi.o
 .debug_loc     0x00000000000035ed     0x14b3 ff.o
 .debug_loc     0x0000000000004aa0      0x647 mmc.o
 .debug_loc     0x00000000000050e7       0x40 rtc.o
 .debug_loc     0x0000000000005127       0x3f timer.o
 .debug_loc     0x0000000000005166      0x19a eeprom_driver.o

.debug_macinfo
 *(.debug_macinfo)
OUTPUT(panelcontroller.elf elf32-avr)
LOAD linker stubs

.debug_pubtypes
                0x0000000000000000      0x775
 .debug_pubtypes
                0x0000000000000000      0x150 main.o
 .debug_pubtypes
                0x0000000000000150      0x221 utils.o
 .debug_pubtypes
                0x0000000000000371       0x76 uart.o
 .debug_pubtypes
                0x00000000000003e7       0x44 handler.o
 .debug_pubtypes
                0x000000000000042b      0x13a twi.o
 .debug_pubtypes
                0x0000000000000565       0x73 ff.o
 .debug_pubtypes
                0x00000000000005d8       0x9c mmc.o
 .debug_pubtypes
                0x0000000000000674       0x41 rtc.o
 .debug_pubtypes
                0x00000000000006b5       0x5e timer.o
 .debug_pubtypes
                0x0000000000000713       0x62 eeprom_driver.o

.debug_ranges   0x0000000000000000       0xe8
 .debug_ranges  0x0000000000000000       0xe8 ff.o
